target datalayout = "e-m:e-p270:32:32-p271:32:32-p272:64:64-i64:64-i128:128-f80:128-n8:16:32:64-S128"
target triple = "x86_64-pc-linux-gnu"

%struct.AVPacket = type { ptr, i64, i64, ptr, i32, i32, i32, ptr, i32, i64, i64, ptr, ptr, %struct.AVRational }
%struct.AVRational = type { i32, i32 }
%struct.AVStream = type { ptr, i32, i32, ptr, ptr, %struct.AVRational, i64, i64, i64, i32, i32, %struct.AVRational, ptr, %struct.AVRational, %struct.AVPacket, i32, %struct.AVRational, i32 }

@.str.5 = private unnamed_addr constant [148 x i8] c"%s bitstream malformed, no startcode found, use the video bitstream filter '%s_mp4toannexb' to fix it ('-bsf:v %s_mp4toannexb' option with ffmpeg)\0A\00", align 1
@.str.6 = private unnamed_addr constant [47 x i8] c"%s bitstream error, startcode missing, size %d\00", align 1
@.str.7 = private unnamed_addr constant [11 x i8] c" data %08X\00", align 1
@.str.8 = private unnamed_addr constant [2 x i8] c"\0A\00", align 1

; Function Attrs: alwaysinline nounwind willreturn memory(none) uwtable
define internal i32 @av_bswap32(i32 noundef %0) #1 {
  %2 = alloca i32, align 4
  store i32 %0, ptr %2, align 4, !tbaa !59
  %3 = load i32, ptr %2, align 4, !tbaa !59
  %4 = shl i32 %3, 8
  %5 = and i32 %4, 65280
  %6 = load i32, ptr %2, align 4, !tbaa !59
  %7 = lshr i32 %6, 8
  %8 = and i32 %7, 255
  %9 = or i32 %5, %8
  %10 = shl i32 %9, 16
  %11 = load i32, ptr %2, align 4, !tbaa !59
  %12 = lshr i32 %11, 16
  %13 = shl i32 %12, 8
  %14 = and i32 %13, 65280
  %15 = load i32, ptr %2, align 4, !tbaa !59
  %16 = lshr i32 %15, 16
  %17 = lshr i32 %16, 8
  %18 = and i32 %17, 255
  %19 = or i32 %14, %18
  %20 = or i32 %10, %19
  ret i32 %20
}

; Function Attrs: nounwind uwtable
define internal i32 @check_h26x_startcode(ptr noundef %0, ptr noundef %1, ptr noundef %2, ptr noundef %3) #0 {
  %5 = alloca i32, align 4
  %6 = alloca ptr, align 8
  %7 = alloca ptr, align 8
  %8 = alloca ptr, align 8
  %9 = alloca ptr, align 8
  store ptr %0, ptr %6, align 8, !tbaa !4
  store ptr %1, ptr %7, align 8, !tbaa !9
  store ptr %2, ptr %8, align 8, !tbaa !11
  store ptr %3, ptr %9, align 8, !tbaa !13
  %10 = load ptr, ptr %8, align 8, !tbaa !11
  %11 = getelementptr inbounds nuw %struct.AVPacket, ptr %10, i32 0, i32 4
  %12 = load i32, ptr %11, align 8, !tbaa !15
  %13 = icmp slt i32 %12, 5
  br i1 %13, label %45, label %14

14:                                               ; preds = %4
  %15 = load ptr, ptr %8, align 8, !tbaa !11
  %16 = getelementptr inbounds nuw %struct.AVPacket, ptr %15, i32 0, i32 3
  %17 = load ptr, ptr %16, align 8, !tbaa !22
  %18 = load i32, ptr %17, align 1, !tbaa !23
  %19 = call i32 @av_bswap32(i32 noundef %18) #12
  %20 = icmp ne i32 %19, 1
  br i1 %20, label %21, label %74

21:                                               ; preds = %14
  %22 = load ptr, ptr %8, align 8, !tbaa !11
  %23 = getelementptr inbounds nuw %struct.AVPacket, ptr %22, i32 0, i32 3
  %24 = load ptr, ptr %23, align 8, !tbaa !22
  %25 = getelementptr inbounds i8, ptr %24, i64 0
  %26 = load i8, ptr %25, align 1, !tbaa !23
  %27 = zext i8 %26 to i32
  %28 = shl i32 %27, 16
  %29 = load ptr, ptr %8, align 8, !tbaa !11
  %30 = getelementptr inbounds nuw %struct.AVPacket, ptr %29, i32 0, i32 3
  %31 = load ptr, ptr %30, align 8, !tbaa !22
  %32 = getelementptr inbounds i8, ptr %31, i64 1
  %33 = load i8, ptr %32, align 1, !tbaa !23
  %34 = zext i8 %33 to i32
  %35 = shl i32 %34, 8
  %36 = or i32 %28, %35
  %37 = load ptr, ptr %8, align 8, !tbaa !11
  %38 = getelementptr inbounds nuw %struct.AVPacket, ptr %37, i32 0, i32 3
  %39 = load ptr, ptr %38, align 8, !tbaa !22
  %40 = getelementptr inbounds i8, ptr %39, i64 2
  %41 = load i8, ptr %40, align 1, !tbaa !23
  %42 = zext i8 %41 to i32
  %43 = or i32 %36, %42
  %44 = icmp ne i32 %43, 1
  br i1 %44, label %45, label %74

45:                                               ; preds = %21, %4
  %46 = load ptr, ptr %7, align 8, !tbaa !9
  %47 = getelementptr inbounds nuw %struct.AVStream, ptr %46, i32 0, i32 8
  %48 = load i64, ptr %47, align 8, !tbaa !24
  %49 = icmp ne i64 %48, 0
  br i1 %49, label %55, label %50

50:                                               ; preds = %45
  %51 = load ptr, ptr %6, align 8, !tbaa !4
  %52 = load ptr, ptr %9, align 8, !tbaa !13
  %53 = load ptr, ptr %9, align 8, !tbaa !13
  %54 = load ptr, ptr %9, align 8, !tbaa !13
  call void (ptr, i32, ptr, ...) @av_log(ptr noundef %51, i32 noundef 16, ptr noundef @.str.5, ptr noundef %52, ptr noundef %53, ptr noundef %54)
  store i32 -1094995529, ptr %5, align 4
  br label %75

55:                                               ; preds = %45
  %56 = load ptr, ptr %6, align 8, !tbaa !4
  %57 = load ptr, ptr %9, align 8, !tbaa !13
  %58 = load ptr, ptr %8, align 8, !tbaa !11
  %59 = getelementptr inbounds nuw %struct.AVPacket, ptr %58, i32 0, i32 4
  %60 = load i32, ptr %59, align 8, !tbaa !15
  call void (ptr, i32, ptr, ...) @av_log(ptr noundef %56, i32 noundef 24, ptr noundef @.str.6, ptr noundef %57, i32 noundef %60)
  %61 = load ptr, ptr %8, align 8, !tbaa !11
  %62 = getelementptr inbounds nuw %struct.AVPacket, ptr %61, i32 0, i32 4
  %63 = load i32, ptr %62, align 8, !tbaa !15
  %64 = icmp ne i32 %63, 0
  br i1 %64, label %65, label %72

65:                                               ; preds = %55
  %66 = load ptr, ptr %6, align 8, !tbaa !4
  %67 = load ptr, ptr %8, align 8, !tbaa !11
  %68 = getelementptr inbounds nuw %struct.AVPacket, ptr %67, i32 0, i32 3
  %69 = load ptr, ptr %68, align 8, !tbaa !22
  %70 = load i32, ptr %69, align 1, !tbaa !23
  %71 = call i32 @av_bswap32(i32 noundef %70) #12
  call void (ptr, i32, ptr, ...) @av_log(ptr noundef %66, i32 noundef 24, ptr noundef @.str.7, i32 noundef %71)
  br label %72

72:                                               ; preds = %65, %55
  %73 = load ptr, ptr %6, align 8, !tbaa !4
  call void (ptr, i32, ptr, ...) @av_log(ptr noundef %73, i32 noundef 24, ptr noundef @.str.8)
  br label %74

74:                                               ; preds = %72, %21, %14
  store i32 0, ptr %5, align 4
  br label %75

75:                                               ; preds = %74, %50
  %76 = load i32, ptr %5, align 4
  ret i32 %76
}