; Function Attrs: nounwind uwtable
define internal fastcc range(i32 -1094995529, 1) i32 @check_h26x_startcode(ptr noundef %0, ptr noundef readonly captures(none) %1, ptr noundef readonly captures(none) %2, ptr noundef %3) unnamed_addr #0 {
  %5 = getelementptr inbounds nuw i8, ptr %2, i64 32
  %6 = load i32, ptr %5, align 8, !tbaa !4
  %7 = icmp slt i32 %6, 5
  br i1 %7, label %20, label %8

8:                                                ; preds = %4
  %9 = getelementptr inbounds nuw i8, ptr %2, i64 24
  %10 = load ptr, ptr %9, align 8, !tbaa !15
  %11 = load i32, ptr %10, align 1
  %.not = icmp eq i32 %11, 16777216
  br i1 %.not, label %32, label %12

12:                                               ; preds = %8
  %13 = lshr i32 %11, 16
  %14 = shl i32 %11, 16
  %15 = and i32 %14, 16711680
  %16 = and i32 %11, 65280
  %17 = or disjoint i32 %16, %15
  %18 = and i32 %13, 255
  %19 = or disjoint i32 %17, %18
  %.not17 = icmp eq i32 %19, 1
  br i1 %.not17, label %32, label %20

20:                                               ; preds = %12, %4
  %21 = getelementptr inbounds nuw i8, ptr %1, i64 56
  %22 = load i64, ptr %21, align 8, !tbaa !16
  %.not18 = icmp eq i64 %22, 0
  br i1 %.not18, label %23, label %24

23:                                               ; preds = %20
  tail call void (ptr, i32, ptr, ...) @av_log(ptr noundef %0, i32 noundef 16, ptr noundef nonnull @.str.5, ptr noundef %3, ptr noundef %3, ptr noundef %3) #12
  br label %32

24:                                               ; preds = %20
  tail call void (ptr, i32, ptr, ...) @av_log(ptr noundef %0, i32 noundef 24, ptr noundef nonnull @.str.6, ptr noundef %3, i32 noundef %6) #12
  %25 = load i32, ptr %5, align 8, !tbaa !4
  %.not19 = icmp eq i32 %25, 0
  br i1 %.not19, label %31, label %26

26:                                               ; preds = %24
  %27 = getelementptr inbounds nuw i8, ptr %2, i64 24
  %28 = load ptr, ptr %27, align 8, !tbaa !15
  %29 = load i32, ptr %28, align 1, !tbaa !21
  %30 = tail call i32 @llvm.bswap.i32(i32 %29)
  tail call void (ptr, i32, ptr, ...) @av_log(ptr noundef %0, i32 noundef 24, ptr noundef nonnull @.str.7, i32 noundef %30) #12
  br label %31

31:                                               ; preds = %26, %24
  tail call void (ptr, i32, ptr, ...) @av_log(ptr noundef %0, i32 noundef 24, ptr noundef nonnull @.str.8) #12
  br label %32

32:                                               ; preds = %8, %12, %31, %23
  %.0 = phi i32 [ -1094995529, %23 ], [ 0, %31 ], [ 0, %12 ], [ 0, %8 ]
  ret i32 %.0
}